target datalayout = "e-m:e-p270:32:32-p271:32:32-p272:64:64-i64:64-i128:128-f80:128-n8:16:32:64-S128"
target triple = "x86_64-pc-linux-gnu"

%struct.TLS1_PRF = type { ptr, ptr, ptr, ptr, i64, ptr, i64 }
%struct.PROV_DIGEST = type { ptr, ptr, ptr }
%struct.ossl_param_st = type { ptr, i32, ptr, i64, i64 }

@.str = private unnamed_addr constant [53 x i8] c"../openssl/providers/implementations/kdfs/tls1_prf.c\00", align 1
@.str.2 = private unnamed_addr constant [7 x i8] c"digest\00", align 1
@.str.3 = private unnamed_addr constant [7 x i8] c"secret\00", align 1
@.str.4 = private unnamed_addr constant [5 x i8] c"seed\00", align 1
@.str.5 = private unnamed_addr constant [9 x i8] c"MD5-SHA1\00", align 1
@.str.6 = private unnamed_addr constant [5 x i8] c"HMAC\00", align 1
@.str.7 = private unnamed_addr constant [4 x i8] c"MD5\00", align 1
@.str.8 = private unnamed_addr constant [5 x i8] c"SHA1\00", align 1
@__func__.kdf_tls1_prf_set_ctx_params = private unnamed_addr constant [28 x i8] c"kdf_tls1_prf_set_ctx_params\00", align 1

; Function Attrs: inlinehint nounwind uwtable
define internal i64 @safe_add_size_t(i64 noundef %0, i64 noundef %1, ptr noundef %2) #5 {
  %4 = alloca i64, align 8
  %5 = alloca i64, align 8
  %6 = alloca i64, align 8
  %7 = alloca ptr, align 8
  %8 = alloca i64, align 8
  %9 = alloca i32, align 4
  store i64 %0, ptr %5, align 8, !tbaa !19
  store i64 %1, ptr %6, align 8, !tbaa !19
  store ptr %2, ptr %7, align 8, !tbaa !37
  call void @llvm.lifetime.start.p0(i64 8, ptr %8) #8
  %10 = load i64, ptr %5, align 8, !tbaa !19
  %11 = load i64, ptr %6, align 8, !tbaa !19
  %12 = call { i64, i1 } @llvm.uadd.with.overflow.i64(i64 %10, i64 %11)
  %13 = extractvalue { i64, i1 } %12, 1
  %14 = extractvalue { i64, i1 } %12, 0
  store i64 %14, ptr %8, align 8
  br i1 %13, label %17, label %15

15:                                               ; preds = %3
  %16 = load i64, ptr %8, align 8, !tbaa !19
  store i64 %16, ptr %4, align 8
  store i32 1, ptr %9, align 4
  br label %24

17:                                               ; preds = %3
  %18 = load ptr, ptr %7, align 8, !tbaa !37
  %19 = load i32, ptr %18, align 4, !tbaa !30
  %20 = or i32 %19, 1
  store i32 %20, ptr %18, align 4, !tbaa !30
  %21 = load i64, ptr %5, align 8, !tbaa !19
  %22 = load i64, ptr %6, align 8, !tbaa !19
  %23 = add i64 %21, %22
  store i64 %23, ptr %4, align 8
  store i32 1, ptr %9, align 4
  br label %24

24:                                               ; preds = %17, %15
  call void @llvm.lifetime.end.p0(i64 8, ptr %8) #8
  %25 = load i64, ptr %4, align 8
  ret i64 %25
}

; Function Attrs: inlinehint nounwind uwtable
define internal i32 @ossl_param_is_empty(ptr noundef %0) #5 {
  %2 = alloca ptr, align 8
  store ptr %0, ptr %2, align 8, !tbaa !20
  %3 = load ptr, ptr %2, align 8, !tbaa !20
  %4 = icmp eq ptr %3, null
  br i1 %4, label %10, label %5

5:                                                ; preds = %1
  %6 = load ptr, ptr %2, align 8, !tbaa !20
  %7 = getelementptr inbounds nuw %struct.ossl_param_st, ptr %6, i32 0, i32 0
  %8 = load ptr, ptr %7, align 8, !tbaa !36
  %9 = icmp eq ptr %8, null
  br label %10

10:                                               ; preds = %5, %1
  %11 = phi i1 [ true, %1 ], [ %9, %5 ]
  %12 = zext i1 %11 to i32
  ret i32 %12
}

; Function Attrs: nounwind uwtable
define internal i32 @kdf_tls1_prf_set_ctx_params(ptr noundef %0, ptr noundef %1) #0 {
  %3 = alloca i32, align 4
  %4 = alloca ptr, align 8
  %5 = alloca ptr, align 8
  %6 = alloca ptr, align 8
  %7 = alloca ptr, align 8
  %8 = alloca ptr, align 8
  %9 = alloca i32, align 4
  %10 = alloca %struct.PROV_DIGEST, align 8
  %11 = alloca ptr, align 8
  %12 = alloca ptr, align 8
  %13 = alloca i64, align 8
  %14 = alloca ptr, align 8
  %15 = alloca i64, align 8
  %16 = alloca i32, align 4
  store ptr %0, ptr %4, align 8, !tbaa !3
  store ptr %1, ptr %5, align 8, !tbaa !20
  call void @llvm.lifetime.start.p0(i64 8, ptr %6) #8
  call void @llvm.lifetime.start.p0(i64 8, ptr %7) #8
  %17 = load ptr, ptr %4, align 8, !tbaa !3
  store ptr %17, ptr %7, align 8, !tbaa !3
  call void @llvm.lifetime.start.p0(i64 8, ptr %8) #8
  %18 = load ptr, ptr %7, align 8, !tbaa !3
  %19 = getelementptr inbounds nuw %struct.TLS1_PRF, ptr %18, i32 0, i32 0
  %20 = load ptr, ptr %19, align 8, !tbaa !7
  %21 = call ptr @ossl_prov_ctx_get0_libctx(ptr noundef %20)
  store ptr %21, ptr %8, align 8, !tbaa !22
  %22 = load ptr, ptr %5, align 8, !tbaa !20
  %23 = call i32 @ossl_param_is_empty(ptr noundef %22)
  %24 = icmp ne i32 %23, 0
  br i1 %24, label %25, label %26

25:                                               ; preds = %2
  store i32 1, ptr %3, align 4
  store i32 1, ptr %9, align 4
  br label %184

26:                                               ; preds = %2
  %27 = load ptr, ptr %5, align 8, !tbaa !20
  %28 = call ptr @OSSL_PARAM_locate_const(ptr noundef %27, ptr noundef @.str.2)
  store ptr %28, ptr %6, align 8, !tbaa !20
  %29 = icmp ne ptr %28, null
  br i1 %29, label %30, label %80

30:                                               ; preds = %26
  call void @llvm.lifetime.start.p0(i64 24, ptr %10) #8
  call void @llvm.lifetime.start.p0(i64 8, ptr %11) #8
  store ptr null, ptr %11, align 8, !tbaa !24
  %31 = load ptr, ptr %6, align 8, !tbaa !20
  %32 = getelementptr inbounds nuw %struct.ossl_param_st, ptr %31, i32 0, i32 2
  %33 = load ptr, ptr %32, align 8, !tbaa !26
  %34 = call i32 @OPENSSL_strcasecmp(ptr noundef %33, ptr noundef @.str.5)
  %35 = icmp eq i32 %34, 0
  br i1 %35, label %36, label %52

36:                                               ; preds = %30
  %37 = load ptr, ptr %7, align 8, !tbaa !3
  %38 = getelementptr inbounds nuw %struct.TLS1_PRF, ptr %37, i32 0, i32 1
  %39 = load ptr, ptr %5, align 8, !tbaa !20
  %40 = load ptr, ptr %8, align 8, !tbaa !22
  %41 = call i32 @ossl_prov_macctx_load_from_params(ptr noundef %38, ptr noundef %39, ptr noundef @.str.6, ptr noundef null, ptr noundef @.str.7, ptr noundef %40)
  %42 = icmp ne i32 %41, 0
  br i1 %42, label %43, label %50

43:                                               ; preds = %36
  %44 = load ptr, ptr %7, align 8, !tbaa !3
  %45 = getelementptr inbounds nuw %struct.TLS1_PRF, ptr %44, i32 0, i32 2
  %46 = load ptr, ptr %5, align 8, !tbaa !20
  %47 = load ptr, ptr %8, align 8, !tbaa !22
  %48 = call i32 @ossl_prov_macctx_load_from_params(ptr noundef %45, ptr noundef %46, ptr noundef @.str.6, ptr noundef null, ptr noundef @.str.8, ptr noundef %47)
  %49 = icmp ne i32 %48, 0
  br i1 %49, label %51, label %50

50:                                               ; preds = %43, %36
  store i32 0, ptr %3, align 4
  store i32 1, ptr %9, align 4
  br label %77

51:                                               ; preds = %43
  br label %64

52:                                               ; preds = %30
  %53 = load ptr, ptr %7, align 8, !tbaa !3
  %54 = getelementptr inbounds nuw %struct.TLS1_PRF, ptr %53, i32 0, i32 2
  %55 = load ptr, ptr %54, align 8, !tbaa !13
  call void @EVP_MAC_CTX_free(ptr noundef %55)
  %56 = load ptr, ptr %7, align 8, !tbaa !3
  %57 = getelementptr inbounds nuw %struct.TLS1_PRF, ptr %56, i32 0, i32 1
  %58 = load ptr, ptr %5, align 8, !tbaa !20
  %59 = load ptr, ptr %8, align 8, !tbaa !22
  %60 = call i32 @ossl_prov_macctx_load_from_params(ptr noundef %57, ptr noundef %58, ptr noundef @.str.6, ptr noundef null, ptr noundef null, ptr noundef %59)
  %61 = icmp ne i32 %60, 0
  br i1 %61, label %63, label %62

62:                                               ; preds = %52
  store i32 0, ptr %3, align 4
  store i32 1, ptr %9, align 4
  br label %77

63:                                               ; preds = %52
  br label %64

64:                                               ; preds = %63, %51
  call void @llvm.memset.p0.i64(ptr align 8 %10, i8 0, i64 24, i1 false)
  %65 = load ptr, ptr %5, align 8, !tbaa !20
  %66 = load ptr, ptr %8, align 8, !tbaa !22
  %67 = call i32 @ossl_prov_digest_load_from_params(ptr noundef %10, ptr noundef %65, ptr noundef %66)
  %68 = icmp ne i32 %67, 0
  br i1 %68, label %70, label %69

69:                                               ; preds = %64
  store i32 0, ptr %3, align 4
  store i32 1, ptr %9, align 4
  br label %77

70:                                               ; preds = %64
  %71 = call ptr @ossl_prov_digest_md(ptr noundef %10)
  store ptr %71, ptr %11, align 8, !tbaa !24
  %72 = load ptr, ptr %11, align 8, !tbaa !24
  %73 = call i32 @EVP_MD_xof(ptr noundef %72)
  %74 = icmp ne i32 %73, 0
  br i1 %74, label %75, label %76

75:                                               ; preds = %70
  call void @ERR_new()
  call void @ERR_set_debug(ptr noundef @.str, i32 noundef 328, ptr noundef @__func__.kdf_tls1_prf_set_ctx_params)
  call void (i32, i32, ptr, ...) @ERR_set_error(i32 noundef 57, i32 noundef 183, ptr noundef null)
  call void @ossl_prov_digest_reset(ptr noundef %10)
  store i32 0, ptr %3, align 4
  store i32 1, ptr %9, align 4
  br label %77

76:                                               ; preds = %70
  call void @ossl_prov_digest_reset(ptr noundef %10)
  store i32 0, ptr %9, align 4
  br label %77

77:                                               ; preds = %76, %75, %69, %62, %50
  call void @llvm.lifetime.end.p0(i64 8, ptr %11) #8
  call void @llvm.lifetime.end.p0(i64 24, ptr %10) #8
  %78 = load i32, ptr %9, align 4
  switch i32 %78, label %184 [
    i32 0, label %79
  ]

79:                                               ; preds = %77
  br label %80

80:                                               ; preds = %79, %26
  %81 = load ptr, ptr %5, align 8, !tbaa !20
  %82 = call ptr @OSSL_PARAM_locate_const(ptr noundef %81, ptr noundef @.str.3)
  store ptr %82, ptr %6, align 8, !tbaa !20
  %83 = icmp ne ptr %82, null
  br i1 %83, label %84, label %102

84:                                               ; preds = %80
  %85 = load ptr, ptr %7, align 8, !tbaa !3
  %86 = getelementptr inbounds nuw %struct.TLS1_PRF, ptr %85, i32 0, i32 3
  %87 = load ptr, ptr %86, align 8, !tbaa !14
  %88 = load ptr, ptr %7, align 8, !tbaa !3
  %89 = getelementptr inbounds nuw %struct.TLS1_PRF, ptr %88, i32 0, i32 4
  %90 = load i64, ptr %89, align 8, !tbaa !15
  call void @CRYPTO_clear_free(ptr noundef %87, i64 noundef %90, ptr noundef @.str, i32 noundef 344)
  %91 = load ptr, ptr %7, align 8, !tbaa !3
  %92 = getelementptr inbounds nuw %struct.TLS1_PRF, ptr %91, i32 0, i32 3
  store ptr null, ptr %92, align 8, !tbaa !14
  %93 = load ptr, ptr %6, align 8, !tbaa !20
  %94 = load ptr, ptr %7, align 8, !tbaa !3
  %95 = getelementptr inbounds nuw %struct.TLS1_PRF, ptr %94, i32 0, i32 3
  %96 = load ptr, ptr %7, align 8, !tbaa !3
  %97 = getelementptr inbounds nuw %struct.TLS1_PRF, ptr %96, i32 0, i32 4
  %98 = call i32 @OSSL_PARAM_get_octet_string(ptr noundef %93, ptr noundef %95, i64 noundef 0, ptr noundef %97)
  %99 = icmp ne i32 %98, 0
  br i1 %99, label %101, label %100

100:                                              ; preds = %84
  store i32 0, ptr %3, align 4
  store i32 1, ptr %9, align 4
  br label %184

101:                                              ; preds = %84
  br label %102

102:                                              ; preds = %101, %80
  %103 = load ptr, ptr %5, align 8, !tbaa !20
  %104 = call ptr @OSSL_PARAM_locate_const(ptr noundef %103, ptr noundef @.str.4)
  store ptr %104, ptr %6, align 8, !tbaa !20
  %105 = icmp ne ptr %104, null
  br i1 %105, label %106, label %183

106:                                              ; preds = %102
  br label %107

107:                                              ; preds = %178, %106
  %108 = load ptr, ptr %6, align 8, !tbaa !20
  %109 = icmp ne ptr %108, null
  br i1 %109, label %110, label %182

110:                                              ; preds = %107
  %111 = load ptr, ptr %6, align 8, !tbaa !20
  %112 = getelementptr inbounds nuw %struct.ossl_param_st, ptr %111, i32 0, i32 3
  %113 = load i64, ptr %112, align 8, !tbaa !29
  %114 = icmp ne i64 %113, 0
  br i1 %114, label %115, label %177

115:                                              ; preds = %110
  %116 = load ptr, ptr %6, align 8, !tbaa !20
  %117 = getelementptr inbounds nuw %struct.ossl_param_st, ptr %116, i32 0, i32 2
  %118 = load ptr, ptr %117, align 8, !tbaa !26
  %119 = icmp ne ptr %118, null
  br i1 %119, label %120, label %177

120:                                              ; preds = %115
  call void @llvm.lifetime.start.p0(i64 8, ptr %12) #8
  store ptr null, ptr %12, align 8, !tbaa !3
  call void @llvm.lifetime.start.p0(i64 8, ptr %13) #8
  store i64 0, ptr %13, align 8, !tbaa !19
  call void @llvm.lifetime.start.p0(i64 8, ptr %14) #8
  call void @llvm.lifetime.start.p0(i64 8, ptr %15) #8
  call void @llvm.lifetime.start.p0(i64 4, ptr %16) #8
  store i32 0, ptr %16, align 4, !tbaa !30
  %121 = load ptr, ptr %6, align 8, !tbaa !20
  %122 = call i32 @OSSL_PARAM_get_octet_string_ptr(ptr noundef %121, ptr noundef %12, ptr noundef %13)
  %123 = icmp ne i32 %122, 0
  br i1 %123, label %125, label %124

124:                                              ; preds = %120
  store i32 0, ptr %3, align 4
  store i32 1, ptr %9, align 4
  br label %174

125:                                              ; preds = %120
  %126 = load ptr, ptr %7, align 8, !tbaa !3
  %127 = getelementptr inbounds nuw %struct.TLS1_PRF, ptr %126, i32 0, i32 6
  %128 = load i64, ptr %127, align 8, !tbaa !17
  %129 = load i64, ptr %13, align 8, !tbaa !19
  %130 = call i64 @safe_add_size_t(i64 noundef %128, i64 noundef %129, ptr noundef %16)
  store i64 %130, ptr %15, align 8, !tbaa !19
  %131 = load i32, ptr %16, align 4, !tbaa !30
  %132 = icmp ne i32 %131, 0
  br i1 %132, label %133, label %134

133:                                              ; preds = %125
  store i32 0, ptr %3, align 4
  store i32 1, ptr %9, align 4
  br label %174

134:                                              ; preds = %125
  %135 = load ptr, ptr %7, align 8, !tbaa !3
  %136 = getelementptr inbounds nuw %struct.TLS1_PRF, ptr %135, i32 0, i32 5
  %137 = load ptr, ptr %136, align 8, !tbaa !16
  %138 = load ptr, ptr %7, align 8, !tbaa !3
  %139 = getelementptr inbounds nuw %struct.TLS1_PRF, ptr %138, i32 0, i32 6
  %140 = load i64, ptr %139, align 8, !tbaa !17
  %141 = load i64, ptr %15, align 8, !tbaa !19
  %142 = call ptr @CRYPTO_clear_realloc(ptr noundef %137, i64 noundef %140, i64 noundef %141, ptr noundef @.str, i32 noundef 372)
  store ptr %142, ptr %14, align 8, !tbaa !18
  %143 = load ptr, ptr %14, align 8, !tbaa !18
  %144 = icmp ne ptr %143, null
  br i1 %144, label %146, label %145

145:                                              ; preds = %134
  store i32 0, ptr %3, align 4
  store i32 1, ptr %9, align 4
  br label %174

146:                                              ; preds = %134
  %147 = load ptr, ptr %14, align 8, !tbaa !18
  %148 = load ptr, ptr %7, align 8, !tbaa !3
  %149 = getelementptr inbounds nuw %struct.TLS1_PRF, ptr %148, i32 0, i32 5
  store ptr %147, ptr %149, align 8, !tbaa !16
  %150 = load i64, ptr %13, align 8, !tbaa !19
  %151 = icmp ne i64 %150, 0
  %152 = zext i1 %151 to i32
  %153 = icmp ne i32 %152, 0
  %154 = xor i1 %153, true
  %155 = xor i1 %154, true
  %156 = zext i1 %155 to i32
  %157 = sext i32 %156 to i64
  %158 = call i64 @llvm.expect.i64(i64 %157, i64 1)
  %159 = icmp ne i64 %158, 0
  br i1 %159, label %160, label %170

160:                                              ; preds = %146
  %161 = load ptr, ptr %7, align 8, !tbaa !3
  %162 = getelementptr inbounds nuw %struct.TLS1_PRF, ptr %161, i32 0, i32 5
  %163 = load ptr, ptr %162, align 8, !tbaa !16
  %164 = load ptr, ptr %7, align 8, !tbaa !3
  %165 = getelementptr inbounds nuw %struct.TLS1_PRF, ptr %164, i32 0, i32 6
  %166 = load i64, ptr %165, align 8, !tbaa !17
  %167 = getelementptr inbounds nuw i8, ptr %163, i64 %166
  %168 = load ptr, ptr %12, align 8, !tbaa !3
  %169 = load i64, ptr %13, align 8, !tbaa !19
  call void @llvm.memcpy.p0.p0.i64(ptr align 1 %167, ptr align 1 %168, i64 %169, i1 false)
  br label %170

170:                                              ; preds = %160, %146
  %171 = load i64, ptr %15, align 8, !tbaa !19
  %172 = load ptr, ptr %7, align 8, !tbaa !3
  %173 = getelementptr inbounds nuw %struct.TLS1_PRF, ptr %172, i32 0, i32 6
  store i64 %171, ptr %173, align 8, !tbaa !17
  store i32 0, ptr %9, align 4
  br label %174

174:                                              ; preds = %170, %145, %133, %124
  call void @llvm.lifetime.end.p0(i64 4, ptr %16) #8
  call void @llvm.lifetime.end.p0(i64 8, ptr %15) #8
  call void @llvm.lifetime.end.p0(i64 8, ptr %14) #8
  call void @llvm.lifetime.end.p0(i64 8, ptr %13) #8
  call void @llvm.lifetime.end.p0(i64 8, ptr %12) #8
  %175 = load i32, ptr %9, align 4
  switch i32 %175, label %184 [
    i32 0, label %176
  ]

176:                                              ; preds = %174
  br label %177

177:                                              ; preds = %176, %115, %110
  br label %178

178:                                              ; preds = %177
  %179 = load ptr, ptr %6, align 8, !tbaa !20
  %180 = getelementptr inbounds %struct.ossl_param_st, ptr %179, i64 1
  %181 = call ptr @OSSL_PARAM_locate_const(ptr noundef %180, ptr noundef @.str.4)
  store ptr %181, ptr %6, align 8, !tbaa !20
  br label %107, !llvm.loop !31

182:                                              ; preds = %107
  br label %183

183:                                              ; preds = %182, %102
  store i32 1, ptr %3, align 4
  store i32 1, ptr %9, align 4
  br label %184

184:                                              ; preds = %183, %174, %100, %77, %25
  call void @llvm.lifetime.end.p0(i64 8, ptr %8) #8
  call void @llvm.lifetime.end.p0(i64 8, ptr %7) #8
  call void @llvm.lifetime.end.p0(i64 8, ptr %6) #8
  %185 = load i32, ptr %3, align 4
  ret i32 %185
}