; Function Attrs: nounwind uwtable
define internal range(i32 0, 2) i32 @kdf_tls1_prf_set_ctx_params(ptr noundef %0, ptr noundef %1) #0 {
  %3 = alloca %struct.PROV_DIGEST, align 8
  %4 = alloca ptr, align 8
  %5 = alloca i64, align 8
  %6 = load ptr, ptr %0, align 8, !tbaa !3
  %7 = tail call ptr @ossl_prov_ctx_get0_libctx(ptr noundef %6) #7
  %8 = icmp eq ptr %1, null
  br i1 %8, label %ossl_param_is_empty.exit.thread, label %ossl_param_is_empty.exit

ossl_param_is_empty.exit:                         ; preds = %2
  %9 = load ptr, ptr %1, align 8, !tbaa !20
  %.not = icmp eq ptr %9, null
  br i1 %.not, label %ossl_param_is_empty.exit.thread, label %10

10:                                               ; preds = %ossl_param_is_empty.exit
  %11 = tail call ptr @OSSL_PARAM_locate_const(ptr noundef nonnull %1, ptr noundef nonnull @.str.2) #7
  %.not55 = icmp eq ptr %11, null
  br i1 %.not55, label %35, label %12

12:                                               ; preds = %10
  call void @llvm.lifetime.start.p0(i64 24, ptr nonnull %3) #7
  %13 = getelementptr inbounds nuw i8, ptr %11, i64 16
  %14 = load ptr, ptr %13, align 8, !tbaa !23
  %15 = tail call i32 @OPENSSL_strcasecmp(ptr noundef %14, ptr noundef nonnull @.str.5) #7
  %16 = icmp eq i32 %15, 0
  br i1 %16, label %17, label %23

17:                                               ; preds = %12
  %18 = getelementptr inbounds nuw i8, ptr %0, i64 8
  %19 = tail call i32 @ossl_prov_macctx_load_from_params(ptr noundef nonnull %18, ptr noundef nonnull %1, ptr noundef nonnull @.str.6, ptr noundef null, ptr noundef nonnull @.str.7, ptr noundef %7) #7
  %.not57 = icmp eq i32 %19, 0
  br i1 %.not57, label %.critedge, label %20

20:                                               ; preds = %17
  %21 = getelementptr inbounds nuw i8, ptr %0, i64 16
  %22 = tail call i32 @ossl_prov_macctx_load_from_params(ptr noundef nonnull %21, ptr noundef nonnull %1, ptr noundef nonnull @.str.6, ptr noundef null, ptr noundef nonnull @.str.8, ptr noundef %7) #7
  %.not58 = icmp eq i32 %22, 0
  br i1 %.not58, label %.critedge, label %28

23:                                               ; preds = %12
  %24 = getelementptr inbounds nuw i8, ptr %0, i64 16
  %25 = load ptr, ptr %24, align 8, !tbaa !12
  tail call void @EVP_MAC_CTX_free(ptr noundef %25) #7
  %26 = getelementptr inbounds nuw i8, ptr %0, i64 8
  %27 = tail call i32 @ossl_prov_macctx_load_from_params(ptr noundef nonnull %26, ptr noundef nonnull %1, ptr noundef nonnull @.str.6, ptr noundef null, ptr noundef null, ptr noundef %7) #7
  %.not56 = icmp eq i32 %27, 0
  br i1 %.not56, label %.critedge, label %28

28:                                               ; preds = %23, %20
  call void @llvm.memset.p0.i64(ptr noundef nonnull align 8 dereferenceable(24) %3, i8 0, i64 24, i1 false)
  %29 = call i32 @ossl_prov_digest_load_from_params(ptr noundef nonnull %3, ptr noundef nonnull %1, ptr noundef %7) #7
  %.not59 = icmp eq i32 %29, 0
  br i1 %.not59, label %.critedge, label %30

30:                                               ; preds = %28
  %31 = call ptr @ossl_prov_digest_md(ptr noundef nonnull %3) #7
  %32 = call i32 @EVP_MD_xof(ptr noundef %31) #7
  %.not60 = icmp eq i32 %32, 0
  br i1 %.not60, label %34, label %33

33:                                               ; preds = %30
  call void @ERR_new() #7
  call void @ERR_set_debug(ptr noundef nonnull @.str, i32 noundef 328, ptr noundef nonnull @__func__.kdf_tls1_prf_set_ctx_params) #7
  call void (i32, i32, ptr, ...) @ERR_set_error(i32 noundef 57, i32 noundef 183, ptr noundef null) #7
  call void @ossl_prov_digest_reset(ptr noundef nonnull %3) #7
  br label %.critedge

34:                                               ; preds = %30
  call void @ossl_prov_digest_reset(ptr noundef nonnull %3) #7
  call void @llvm.lifetime.end.p0(i64 24, ptr nonnull %3) #7
  br label %35

35:                                               ; preds = %34, %10
  %36 = call ptr @OSSL_PARAM_locate_const(ptr noundef nonnull %1, ptr noundef nonnull @.str.3) #7
  %.not61 = icmp eq ptr %36, null
  br i1 %.not61, label %43, label %37

37:                                               ; preds = %35
  %38 = getelementptr inbounds nuw i8, ptr %0, i64 24
  %39 = load ptr, ptr %38, align 8, !tbaa !13
  %40 = getelementptr inbounds nuw i8, ptr %0, i64 32
  %41 = load i64, ptr %40, align 8, !tbaa !14
  call void @CRYPTO_clear_free(ptr noundef %39, i64 noundef %41, ptr noundef nonnull @.str, i32 noundef 344) #7
  store ptr null, ptr %38, align 8, !tbaa !13
  %42 = call i32 @OSSL_PARAM_get_octet_string(ptr noundef nonnull %36, ptr noundef nonnull %38, i64 noundef 0, ptr noundef nonnull %40) #7
  %.not62 = icmp eq i32 %42, 0
  br i1 %.not62, label %ossl_param_is_empty.exit.thread, label %43

43:                                               ; preds = %37, %35
  %44 = call ptr @OSSL_PARAM_locate_const(ptr noundef nonnull %1, ptr noundef nonnull @.str.4) #7
  %.not63 = icmp eq ptr %44, null
  br i1 %.not63, label %ossl_param_is_empty.exit.thread, label %.preheader

.preheader:                                       ; preds = %43
  %45 = getelementptr inbounds nuw i8, ptr %0, i64 48
  %46 = getelementptr inbounds nuw i8, ptr %0, i64 40
  br label %47

47:                                               ; preds = %.preheader, %70
  %.046 = phi ptr [ %72, %70 ], [ %44, %.preheader ]
  %48 = getelementptr inbounds nuw i8, ptr %.046, i64 24
  %49 = load i64, ptr %48, align 8, !tbaa !24
  %.not64 = icmp eq i64 %49, 0
  br i1 %.not64, label %70, label %50

50:                                               ; preds = %47
  %51 = getelementptr inbounds nuw i8, ptr %.046, i64 16
  %52 = load ptr, ptr %51, align 8, !tbaa !23
  %.not65 = icmp eq ptr %52, null
  br i1 %.not65, label %70, label %53

53:                                               ; preds = %50
  call void @llvm.lifetime.start.p0(i64 8, ptr nonnull %4) #7
  store ptr null, ptr %4, align 8, !tbaa !25
  call void @llvm.lifetime.start.p0(i64 8, ptr nonnull %5) #7
  store i64 0, ptr %5, align 8, !tbaa !26
  %54 = call i32 @OSSL_PARAM_get_octet_string_ptr(ptr noundef nonnull %.046, ptr noundef nonnull %4, ptr noundef nonnull %5) #7
  %.not66 = icmp eq i32 %54, 0
  br i1 %.not66, label %safe_add_size_t.exit, label %55

55:                                               ; preds = %53
  %56 = load i64, ptr %45, align 8, !tbaa !16
  %57 = load i64, ptr %5, align 8, !tbaa !26
  %58 = call { i64, i1 } @llvm.uadd.with.overflow.i64(i64 %56, i64 %57)
  %59 = extractvalue { i64, i1 } %58, 1
  br i1 %59, label %safe_add_size_t.exit, label %60

60:                                               ; preds = %55
  %61 = extractvalue { i64, i1 } %58, 0
  %62 = load ptr, ptr %46, align 8, !tbaa !15
  %63 = call ptr @CRYPTO_clear_realloc(ptr noundef %62, i64 noundef %56, i64 noundef %61, ptr noundef nonnull @.str, i32 noundef 372) #7
  %.not68 = icmp eq ptr %63, null
  br i1 %.not68, label %safe_add_size_t.exit, label %64

64:                                               ; preds = %60
  store ptr %63, ptr %46, align 8, !tbaa !15
  %65 = load i64, ptr %5, align 8, !tbaa !26
  %.not69 = icmp eq i64 %65, 0
  br i1 %.not69, label %.critedge71, label %66, !prof !27

66:                                               ; preds = %64
  %67 = load i64, ptr %45, align 8, !tbaa !16
  %68 = getelementptr inbounds nuw i8, ptr %63, i64 %67
  %69 = load ptr, ptr %4, align 8, !tbaa !25
  call void @llvm.memcpy.p0.p0.i64(ptr nonnull align 1 %68, ptr align 1 %69, i64 %65, i1 false)
  br label %.critedge71

.critedge71:                                      ; preds = %66, %64
  store i64 %61, ptr %45, align 8, !tbaa !16
  call void @llvm.lifetime.end.p0(i64 8, ptr nonnull %5) #7
  call void @llvm.lifetime.end.p0(i64 8, ptr nonnull %4) #7
  br label %70

safe_add_size_t.exit:                             ; preds = %55, %60, %53
  call void @llvm.lifetime.end.p0(i64 8, ptr nonnull %5) #7
  call void @llvm.lifetime.end.p0(i64 8, ptr nonnull %4) #7
  br label %ossl_param_is_empty.exit.thread

70:                                               ; preds = %.critedge71, %47, %50
  %71 = getelementptr inbounds nuw i8, ptr %.046, i64 40
  %72 = call ptr @OSSL_PARAM_locate_const(ptr noundef nonnull %71, ptr noundef nonnull @.str.4) #7
  %.old2.not = icmp eq ptr %72, null
  br i1 %.old2.not, label %ossl_param_is_empty.exit.thread, label %47

.critedge:                                        ; preds = %28, %23, %17, %20, %33
  call void @llvm.lifetime.end.p0(i64 24, ptr nonnull %3) #7
  br label %ossl_param_is_empty.exit.thread

ossl_param_is_empty.exit.thread:                  ; preds = %70, %2, %43, %safe_add_size_t.exit, %37, %.critedge, %ossl_param_is_empty.exit
  %.0 = phi i32 [ 0, %safe_add_size_t.exit ], [ 1, %ossl_param_is_empty.exit ], [ 0, %.critedge ], [ 0, %37 ], [ 1, %43 ], [ 1, %2 ], [ 1, %70 ]
  ret i32 %.0
}